target datalayout = "e-m:e-p270:32:32-p271:32:32-p272:64:64-i64:64-i128:128-f80:128-n8:16:32:64-S128"
target triple = "x86_64-pc-linux-gnu"

%struct.engine_st = type { ptr, ptr, ptr, ptr, ptr, ptr, ptr, ptr, ptr, ptr, ptr, ptr, ptr, ptr, ptr, ptr, ptr, ptr, ptr, i32, %struct.CRYPTO_REF_COUNT, i32, %struct.crypto_ex_data_st, ptr, ptr, ptr, ptr, ptr }
%struct.CRYPTO_REF_COUNT = type { i32 }
%struct.crypto_ex_data_st = type { ptr, ptr }

@.str = private unnamed_addr constant [36 x i8] c"../openssl/crypto/engine/eng_ctrl.c\00", align 1
@__func__.ENGINE_cmd_is_executable = private unnamed_addr constant [25 x i8] c"ENGINE_cmd_is_executable\00", align 1
@__func__.ENGINE_ctrl_cmd_string = private unnamed_addr constant [23 x i8] c"ENGINE_ctrl_cmd_string\00", align 1

; Function Attrs: nounwind uwtable
define i32 @ENGINE_cmd_is_executable(ptr noundef %0, i32 noundef %1) #0 {
  %3 = alloca i32, align 4
  %4 = alloca ptr, align 8
  %5 = alloca i32, align 4
  %6 = alloca i32, align 4
  %7 = alloca i32, align 4
  store ptr %0, ptr %4, align 8, !tbaa !3
  store i32 %1, ptr %5, align 4, !tbaa !8
  call void @llvm.lifetime.start.p0(i64 4, ptr %6) #5
  %8 = load ptr, ptr %4, align 8, !tbaa !3
  %9 = load i32, ptr %5, align 4, !tbaa !8
  %10 = sext i32 %9 to i64
  %11 = call i32 @ENGINE_ctrl(ptr noundef %8, i32 noundef 18, i64 noundef %10, ptr noundef null, ptr noundef null)
  store i32 %11, ptr %6, align 4, !tbaa !8
  %12 = icmp slt i32 %11, 0
  br i1 %12, label %13, label %14

13:                                               ; preds = %2
  call void @ERR_new()
  call void @ERR_set_debug(ptr noundef @.str, i32 noundef 181, ptr noundef @__func__.ENGINE_cmd_is_executable)
  call void (i32, i32, ptr, ...) @ERR_set_error(i32 noundef 38, i32 noundef 138, ptr noundef null)
  store i32 0, ptr %3, align 4
  store i32 1, ptr %7, align 4
  br label %28

14:                                               ; preds = %2
  %15 = load i32, ptr %6, align 4, !tbaa !8
  %16 = and i32 %15, 4
  %17 = icmp ne i32 %16, 0
  br i1 %17, label %27, label %18

18:                                               ; preds = %14
  %19 = load i32, ptr %6, align 4, !tbaa !8
  %20 = and i32 %19, 1
  %21 = icmp ne i32 %20, 0
  br i1 %21, label %27, label %22

22:                                               ; preds = %18
  %23 = load i32, ptr %6, align 4, !tbaa !8
  %24 = and i32 %23, 2
  %25 = icmp ne i32 %24, 0
  br i1 %25, label %27, label %26

26:                                               ; preds = %22
  store i32 0, ptr %3, align 4
  store i32 1, ptr %7, align 4
  br label %28

27:                                               ; preds = %22, %18, %14
  store i32 1, ptr %3, align 4
  store i32 1, ptr %7, align 4
  br label %28

28:                                               ; preds = %27, %26, %13
  call void @llvm.lifetime.end.p0(i64 4, ptr %6) #5
  %29 = load i32, ptr %3, align 4
  ret i32 %29
}

; Function Attrs: nounwind uwtable
define i32 @ENGINE_ctrl_cmd_string(ptr noundef %0, ptr noundef %1, ptr noundef %2, i32 noundef %3) #0 {
  %5 = alloca i32, align 4
  %6 = alloca ptr, align 8
  %7 = alloca ptr, align 8
  %8 = alloca ptr, align 8
  %9 = alloca i32, align 4
  %10 = alloca i32, align 4
  %11 = alloca i32, align 4
  %12 = alloca i64, align 8
  %13 = alloca ptr, align 8
  %14 = alloca i32, align 4
  store ptr %0, ptr %6, align 8, !tbaa !3
  store ptr %1, ptr %7, align 8, !tbaa !27
  store ptr %2, ptr %8, align 8, !tbaa !27
  store i32 %3, ptr %9, align 4, !tbaa !8
  call void @llvm.lifetime.start.p0(i64 4, ptr %10) #5
  call void @llvm.lifetime.start.p0(i64 4, ptr %11) #5
  call void @llvm.lifetime.start.p0(i64 8, ptr %12) #5
  call void @llvm.lifetime.start.p0(i64 8, ptr %13) #5
  %15 = load ptr, ptr %6, align 8, !tbaa !3
  %16 = icmp eq ptr %15, null
  br i1 %16, label %20, label %17

17:                                               ; preds = %4
  %18 = load ptr, ptr %7, align 8, !tbaa !27
  %19 = icmp eq ptr %18, null
  br i1 %19, label %20, label %21

20:                                               ; preds = %17, %4
  call void @ERR_new()
  call void @ERR_set_debug(ptr noundef @.str, i32 noundef 235, ptr noundef @__func__.ENGINE_ctrl_cmd_string)
  call void (i32, i32, ptr, ...) @ERR_set_error(i32 noundef 38, i32 noundef 786690, ptr noundef null)
  store i32 0, ptr %5, align 4
  store i32 1, ptr %14, align 4
  br label %107

21:                                               ; preds = %17
  %22 = load ptr, ptr %6, align 8, !tbaa !3
  %23 = getelementptr inbounds nuw %struct.engine_st, ptr %22, i32 0, i32 14
  %24 = load ptr, ptr %23, align 8, !tbaa !13
  %25 = icmp eq ptr %24, null
  br i1 %25, label %31, label %26

26:                                               ; preds = %21
  %27 = load ptr, ptr %6, align 8, !tbaa !3
  %28 = load ptr, ptr %7, align 8, !tbaa !27
  %29 = call i32 @ENGINE_ctrl(ptr noundef %27, i32 noundef 13, i64 noundef 0, ptr noundef %28, ptr noundef null)
  store i32 %29, ptr %10, align 4, !tbaa !8
  %30 = icmp sle i32 %29, 0
  br i1 %30, label %31, label %36

31:                                               ; preds = %26, %21
  %32 = load i32, ptr %9, align 4, !tbaa !8
  %33 = icmp ne i32 %32, 0
  br i1 %33, label %34, label %35

34:                                               ; preds = %31
  call void @ERR_clear_error()
  store i32 1, ptr %5, align 4
  store i32 1, ptr %14, align 4
  br label %107

35:                                               ; preds = %31
  call void @ERR_new()
  call void @ERR_set_debug(ptr noundef @.str, i32 noundef 253, ptr noundef @__func__.ENGINE_ctrl_cmd_string)
  call void (i32, i32, ptr, ...) @ERR_set_error(i32 noundef 38, i32 noundef 137, ptr noundef null)
  store i32 0, ptr %5, align 4
  store i32 1, ptr %14, align 4
  br label %107

36:                                               ; preds = %26
  %37 = load ptr, ptr %6, align 8, !tbaa !3
  %38 = load i32, ptr %10, align 4, !tbaa !8
  %39 = call i32 @ENGINE_cmd_is_executable(ptr noundef %37, i32 noundef %38)
  %40 = icmp ne i32 %39, 0
  br i1 %40, label %42, label %41

41:                                               ; preds = %36
  call void @ERR_new()
  call void @ERR_set_debug(ptr noundef @.str, i32 noundef 257, ptr noundef @__func__.ENGINE_ctrl_cmd_string)
  call void (i32, i32, ptr, ...) @ERR_set_error(i32 noundef 38, i32 noundef 134, ptr noundef null)
  store i32 0, ptr %5, align 4
  store i32 1, ptr %14, align 4
  br label %107

42:                                               ; preds = %36
  %43 = load ptr, ptr %6, align 8, !tbaa !3
  %44 = load i32, ptr %10, align 4, !tbaa !8
  %45 = sext i32 %44 to i64
  %46 = call i32 @ENGINE_ctrl(ptr noundef %43, i32 noundef 18, i64 noundef %45, ptr noundef null, ptr noundef null)
  store i32 %46, ptr %11, align 4, !tbaa !8
  %47 = load i32, ptr %11, align 4, !tbaa !8
  %48 = icmp slt i32 %47, 0
  br i1 %48, label %49, label %50

49:                                               ; preds = %42
  call void @ERR_new()
  call void @ERR_set_debug(ptr noundef @.str, i32 noundef 267, ptr noundef @__func__.ENGINE_ctrl_cmd_string)
  call void (i32, i32, ptr, ...) @ERR_set_error(i32 noundef 38, i32 noundef 110, ptr noundef null)
  store i32 0, ptr %5, align 4
  store i32 1, ptr %14, align 4
  br label %107

50:                                               ; preds = %42
  %51 = load i32, ptr %11, align 4, !tbaa !8
  %52 = and i32 %51, 4
  %53 = icmp ne i32 %52, 0
  br i1 %53, label %54, label %66

54:                                               ; preds = %50
  %55 = load ptr, ptr %8, align 8, !tbaa !27
  %56 = icmp ne ptr %55, null
  br i1 %56, label %57, label %58

57:                                               ; preds = %54
  call void @ERR_new()
  call void @ERR_set_debug(ptr noundef @.str, i32 noundef 275, ptr noundef @__func__.ENGINE_ctrl_cmd_string)
  call void (i32, i32, ptr, ...) @ERR_set_error(i32 noundef 38, i32 noundef 136, ptr noundef null)
  store i32 0, ptr %5, align 4
  store i32 1, ptr %14, align 4
  br label %107

58:                                               ; preds = %54
  %59 = load ptr, ptr %6, align 8, !tbaa !3
  %60 = load i32, ptr %10, align 4, !tbaa !8
  %61 = load ptr, ptr %8, align 8, !tbaa !27
  %62 = call i32 @ENGINE_ctrl(ptr noundef %59, i32 noundef %60, i64 noundef 0, ptr noundef %61, ptr noundef null)
  %63 = icmp sgt i32 %62, 0
  br i1 %63, label %64, label %65

64:                                               ; preds = %58
  store i32 1, ptr %5, align 4
  store i32 1, ptr %14, align 4
  br label %107

65:                                               ; preds = %58
  store i32 0, ptr %5, align 4
  store i32 1, ptr %14, align 4
  br label %107

66:                                               ; preds = %50
  %67 = load ptr, ptr %8, align 8, !tbaa !27
  %68 = icmp eq ptr %67, null
  br i1 %68, label %69, label %70

69:                                               ; preds = %66
  call void @ERR_new()
  call void @ERR_set_debug(ptr noundef @.str, i32 noundef 290, ptr noundef @__func__.ENGINE_ctrl_cmd_string)
  call void (i32, i32, ptr, ...) @ERR_set_error(i32 noundef 38, i32 noundef 135, ptr noundef null)
  store i32 0, ptr %5, align 4
  store i32 1, ptr %14, align 4
  br label %107

70:                                               ; preds = %66
  %71 = load i32, ptr %11, align 4, !tbaa !8
  %72 = and i32 %71, 2
  %73 = icmp ne i32 %72, 0
  br i1 %73, label %74, label %82

74:                                               ; preds = %70
  %75 = load ptr, ptr %6, align 8, !tbaa !3
  %76 = load i32, ptr %10, align 4, !tbaa !8
  %77 = load ptr, ptr %8, align 8, !tbaa !27
  %78 = call i32 @ENGINE_ctrl(ptr noundef %75, i32 noundef %76, i64 noundef 0, ptr noundef %77, ptr noundef null)
  %79 = icmp sgt i32 %78, 0
  br i1 %79, label %80, label %81

80:                                               ; preds = %74
  store i32 1, ptr %5, align 4
  store i32 1, ptr %14, align 4
  br label %107

81:                                               ; preds = %74
  store i32 0, ptr %5, align 4
  store i32 1, ptr %14, align 4
  br label %107

82:                                               ; preds = %70
  %83 = load i32, ptr %11, align 4, !tbaa !8
  %84 = and i32 %83, 1
  %85 = icmp ne i32 %84, 0
  br i1 %85, label %87, label %86

86:                                               ; preds = %82
  call void @ERR_new()
  call void @ERR_set_debug(ptr noundef @.str, i32 noundef 307, ptr noundef @__func__.ENGINE_ctrl_cmd_string)
  call void (i32, i32, ptr, ...) @ERR_set_error(i32 noundef 38, i32 noundef 110, ptr noundef null)
  store i32 0, ptr %5, align 4
  store i32 1, ptr %14, align 4
  br label %107

87:                                               ; preds = %82
  %88 = load ptr, ptr %8, align 8, !tbaa !27
  %89 = call i64 @strtol(ptr noundef %88, ptr noundef %13, i32 noundef 10) #5
  store i64 %89, ptr %12, align 8, !tbaa !10
  %90 = load ptr, ptr %8, align 8, !tbaa !27
  %91 = load ptr, ptr %13, align 8, !tbaa !27
  %92 = icmp eq ptr %90, %91
  br i1 %92, label %98, label %93

93:                                               ; preds = %87
  %94 = load ptr, ptr %13, align 8, !tbaa !27
  %95 = load i8, ptr %94, align 1, !tbaa !35
  %96 = sext i8 %95 to i32
  %97 = icmp ne i32 %96, 0
  br i1 %97, label %98, label %99

98:                                               ; preds = %93, %87
  call void @ERR_new()
  call void @ERR_set_debug(ptr noundef @.str, i32 noundef 312, ptr noundef @__func__.ENGINE_ctrl_cmd_string)
  call void (i32, i32, ptr, ...) @ERR_set_error(i32 noundef 38, i32 noundef 133, ptr noundef null)
  store i32 0, ptr %5, align 4
  store i32 1, ptr %14, align 4
  br label %107

99:                                               ; preds = %93
  %100 = load ptr, ptr %6, align 8, !tbaa !3
  %101 = load i32, ptr %10, align 4, !tbaa !8
  %102 = load i64, ptr %12, align 8, !tbaa !10
  %103 = call i32 @ENGINE_ctrl(ptr noundef %100, i32 noundef %101, i64 noundef %102, ptr noundef null, ptr noundef null)
  %104 = icmp sgt i32 %103, 0
  br i1 %104, label %105, label %106

105:                                              ; preds = %99
  store i32 1, ptr %5, align 4
  store i32 1, ptr %14, align 4
  br label %107

106:                                              ; preds = %99
  store i32 0, ptr %5, align 4
  store i32 1, ptr %14, align 4
  br label %107

107:                                              ; preds = %106, %105, %98, %86, %81, %80, %69, %65, %64, %57, %49, %41, %35, %34, %20
  call void @llvm.lifetime.end.p0(i64 8, ptr %13) #5
  call void @llvm.lifetime.end.p0(i64 8, ptr %12) #5
  call void @llvm.lifetime.end.p0(i64 4, ptr %11) #5
  call void @llvm.lifetime.end.p0(i64 4, ptr %10) #5
  %108 = load i32, ptr %5, align 4
  ret i32 %108
}