; Function Attrs: nounwind uwtable
define range(i32 0, 2) i32 @ENGINE_ctrl_cmd_string(ptr noundef %0, ptr noundef %1, ptr noundef %2, i32 noundef %3) local_unnamed_addr #0 {
  %5 = alloca ptr, align 8
  call void @llvm.lifetime.start.p0(i64 8, ptr nonnull %5) #6
  %6 = icmp eq ptr %0, null
  %7 = icmp eq ptr %1, null
  %or.cond = or i1 %6, %7
  br i1 %or.cond, label %8, label %9

8:                                                ; preds = %4
  tail call void @ERR_new() #6
  tail call void @ERR_set_debug(ptr noundef nonnull @.str, i32 noundef 235, ptr noundef nonnull @__func__.ENGINE_ctrl_cmd_string) #6
  tail call void (i32, i32, ptr, ...) @ERR_set_error(i32 noundef 38, i32 noundef 786690, ptr noundef null) #6
  br label %57

9:                                                ; preds = %4
  %10 = getelementptr inbounds nuw i8, ptr %0, i64 112
  %11 = load ptr, ptr %10, align 8, !tbaa !3
  %12 = icmp eq ptr %11, null
  br i1 %12, label %16, label %13

13:                                               ; preds = %9
  %14 = tail call i32 @ENGINE_ctrl(ptr noundef nonnull %0, i32 noundef 13, i64 noundef 0, ptr noundef nonnull %1, ptr noundef null)
  %15 = icmp slt i32 %14, 1
  br i1 %15, label %16, label %19

16:                                               ; preds = %13, %9
  %.not39 = icmp eq i32 %3, 0
  br i1 %.not39, label %18, label %17

17:                                               ; preds = %16
  tail call void @ERR_clear_error() #6
  br label %57

18:                                               ; preds = %16
  tail call void @ERR_new() #6
  tail call void @ERR_set_debug(ptr noundef nonnull @.str, i32 noundef 253, ptr noundef nonnull @__func__.ENGINE_ctrl_cmd_string) #6
  tail call void (i32, i32, ptr, ...) @ERR_set_error(i32 noundef 38, i32 noundef 137, ptr noundef null) #6
  br label %57

19:                                               ; preds = %13
  %20 = zext nneg i32 %14 to i64
  %21 = tail call i32 @ENGINE_ctrl(ptr noundef nonnull %0, i32 noundef 18, i64 noundef %20, ptr noundef null, ptr noundef null)
  %22 = icmp slt i32 %21, 0
  br i1 %22, label %ENGINE_cmd_is_executable.exit.thread, label %ENGINE_cmd_is_executable.exit

ENGINE_cmd_is_executable.exit.thread:             ; preds = %19
  tail call void @ERR_new() #6
  tail call void @ERR_set_debug(ptr noundef nonnull @.str, i32 noundef 181, ptr noundef nonnull @__func__.ENGINE_cmd_is_executable) #6
  tail call void (i32, i32, ptr, ...) @ERR_set_error(i32 noundef 38, i32 noundef 138, ptr noundef null) #6
  br label %24

ENGINE_cmd_is_executable.exit:                    ; preds = %19
  %23 = and i32 %21, 7
  %or.cond8.i.not = icmp eq i32 %23, 0
  br i1 %or.cond8.i.not, label %24, label %25

24:                                               ; preds = %ENGINE_cmd_is_executable.exit.thread, %ENGINE_cmd_is_executable.exit
  tail call void @ERR_new() #6
  tail call void @ERR_set_debug(ptr noundef nonnull @.str, i32 noundef 257, ptr noundef nonnull @__func__.ENGINE_ctrl_cmd_string) #6
  tail call void (i32, i32, ptr, ...) @ERR_set_error(i32 noundef 38, i32 noundef 134, ptr noundef null) #6
  br label %57

25:                                               ; preds = %ENGINE_cmd_is_executable.exit
  %26 = tail call i32 @ENGINE_ctrl(ptr noundef nonnull %0, i32 noundef 18, i64 noundef %20, ptr noundef null, ptr noundef null)
  %27 = icmp slt i32 %26, 0
  br i1 %27, label %28, label %29

28:                                               ; preds = %25
  tail call void @ERR_new() #6
  tail call void @ERR_set_debug(ptr noundef nonnull @.str, i32 noundef 267, ptr noundef nonnull @__func__.ENGINE_ctrl_cmd_string) #6
  tail call void (i32, i32, ptr, ...) @ERR_set_error(i32 noundef 38, i32 noundef 110, ptr noundef null) #6
  br label %57

29:                                               ; preds = %25
  %30 = and i32 %26, 4
  %.not34 = icmp eq i32 %30, 0
  %31 = icmp eq ptr %2, null
  br i1 %.not34, label %37, label %32

32:                                               ; preds = %29
  br i1 %31, label %34, label %33

33:                                               ; preds = %32
  tail call void @ERR_new() #6
  tail call void @ERR_set_debug(ptr noundef nonnull @.str, i32 noundef 275, ptr noundef nonnull @__func__.ENGINE_ctrl_cmd_string) #6
  tail call void (i32, i32, ptr, ...) @ERR_set_error(i32 noundef 38, i32 noundef 136, ptr noundef null) #6
  br label %57

34:                                               ; preds = %32
  %35 = tail call i32 @ENGINE_ctrl(ptr noundef nonnull %0, i32 noundef %14, i64 noundef 0, ptr noundef null, ptr noundef null)
  %36 = icmp sgt i32 %35, 0
  br label %57

37:                                               ; preds = %29
  br i1 %31, label %38, label %39

38:                                               ; preds = %37
  tail call void @ERR_new() #6
  tail call void @ERR_set_debug(ptr noundef nonnull @.str, i32 noundef 290, ptr noundef nonnull @__func__.ENGINE_ctrl_cmd_string) #6
  tail call void (i32, i32, ptr, ...) @ERR_set_error(i32 noundef 38, i32 noundef 135, ptr noundef null) #6
  br label %57

39:                                               ; preds = %37
  %40 = and i32 %26, 2
  %.not35 = icmp eq i32 %40, 0
  br i1 %.not35, label %44, label %41

41:                                               ; preds = %39
  %42 = tail call i32 @ENGINE_ctrl(ptr noundef nonnull %0, i32 noundef %14, i64 noundef 0, ptr noundef nonnull %2, ptr noundef null)
  %43 = icmp sgt i32 %42, 0
  br label %57

44:                                               ; preds = %39
  %45 = and i32 %26, 1
  %.not36 = icmp eq i32 %45, 0
  br i1 %.not36, label %46, label %47

46:                                               ; preds = %44
  tail call void @ERR_new() #6
  tail call void @ERR_set_debug(ptr noundef nonnull @.str, i32 noundef 307, ptr noundef nonnull @__func__.ENGINE_ctrl_cmd_string) #6
  tail call void (i32, i32, ptr, ...) @ERR_set_error(i32 noundef 38, i32 noundef 110, ptr noundef null) #6
  br label %57

47:                                               ; preds = %44
  %48 = call i64 @strtol(ptr noundef nonnull %2, ptr noundef nonnull %5, i32 noundef 10) #6
  %49 = load ptr, ptr %5, align 8, !tbaa !31
  %50 = icmp eq ptr %2, %49
  br i1 %50, label %53, label %51

51:                                               ; preds = %47
  %52 = load i8, ptr %49, align 1, !tbaa !32
  %.not37 = icmp eq i8 %52, 0
  br i1 %.not37, label %54, label %53

53:                                               ; preds = %51, %47
  tail call void @ERR_new() #6
  tail call void @ERR_set_debug(ptr noundef nonnull @.str, i32 noundef 312, ptr noundef nonnull @__func__.ENGINE_ctrl_cmd_string) #6
  tail call void (i32, i32, ptr, ...) @ERR_set_error(i32 noundef 38, i32 noundef 133, ptr noundef null) #6
  br label %57

54:                                               ; preds = %51
  %55 = tail call i32 @ENGINE_ctrl(ptr noundef nonnull %0, i32 noundef %14, i64 noundef %48, ptr noundef null, ptr noundef null)
  %56 = icmp sgt i32 %55, 0
  br label %57

57:                                               ; preds = %54, %41, %34, %53, %46, %38, %33, %28, %24, %18, %17, %8
  %.0.shrunk = phi i1 [ false, %8 ], [ true, %17 ], [ false, %18 ], [ false, %28 ], [ false, %33 ], [ false, %38 ], [ false, %53 ], [ false, %46 ], [ false, %24 ], [ %36, %34 ], [ %43, %41 ], [ %56, %54 ]
  %.0 = zext i1 %.0.shrunk to i32
  call void @llvm.lifetime.end.p0(i64 8, ptr nonnull %5) #6
  ret i32 %.0
}